; Function Attrs: mustprogress nounwind uwtable
define dso_local void @_ZN4llvm15MetadataAsValue5trackEv(ptr noundef nonnull align 8 dereferenceable(32) %0) local_unnamed_addr #0 align 2 {
  %2 = getelementptr inbounds nuw i8, ptr %0, i64 24
  %3 = load ptr, ptr %2, align 8
  %.not = icmp eq ptr %3, null
  br i1 %.not, label %7, label %4

4:                                                ; preds = %1
  %5 = ptrtoint ptr %0 to i64
  %6 = tail call noundef zeroext i1 @_ZN4llvm16MetadataTracking5trackEPvRNS_8MetadataENS_12PointerUnionIJPNS_15MetadataAsValueEPS2_PNS_14DebugValueUserEEEE(ptr noundef nonnull %2, ptr noundef nonnull align 4 dereferenceable(8) %3, i64 %5)
  br label %7

7:                                                ; preds = %4, %1
  ret void
}